; Function Attrs: nounwind uwtable
define void @ecpg_free_params(ptr noundef captures(none) %0, i1 noundef zeroext %1) local_unnamed_addr #0 {
  %3 = getelementptr inbounds nuw i8, ptr %0, i64 72
  %4 = load i32, ptr %3, align 8
  %5 = icmp sgt i32 %4, 0
  br i1 %5, label %.lr.ph, label %._crit_edge

.lr.ph:                                           ; preds = %2
  %6 = getelementptr inbounds nuw i8, ptr %0, i64 80
  %7 = getelementptr inbounds nuw i8, ptr %0, i64 88
  %8 = getelementptr inbounds nuw i8, ptr %0, i64 96
  br i1 %1, label %.lr.ph.split.us, label %print_param_value.exit

.lr.ph.split.us:                                  ; preds = %.lr.ph, %print_param_value.exit.us
  %indvars.iv23 = phi i64 [ %indvars.iv.next24, %print_param_value.exit.us ], [ 0, %.lr.ph ]
  %9 = load ptr, ptr %6, align 8
  %10 = getelementptr inbounds nuw ptr, ptr %9, i64 %indvars.iv23
  %11 = load ptr, ptr %10, align 8
  %12 = load ptr, ptr %7, align 8
  %13 = getelementptr inbounds nuw i32, ptr %12, i64 %indvars.iv23
  %14 = load i32, ptr %13, align 4
  %15 = load i32, ptr %0, align 8
  %indvars.iv.next24 = add nuw nsw i64 %indvars.iv23, 1
  %16 = icmp eq ptr %11, null
  br i1 %16, label %.thread.i.us, label %17

17:                                               ; preds = %.lr.ph.split.us
  %18 = load ptr, ptr %8, align 8
  %19 = getelementptr inbounds nuw i32, ptr %18, i64 %indvars.iv23
  %20 = load i32, ptr %19, align 4
  %.not.i.us = icmp eq i32 %20, 0
  br i1 %.not.i.us, label %.thread.i.us, label %21

21:                                               ; preds = %17
  %22 = tail call i32 @ecpg_hex_enc_len(i32 noundef %14) #14
  %23 = add i32 %22, 1
  %24 = zext i32 %23 to i64
  %25 = tail call ptr @ecpg_alloc(i64 noundef %24, i32 noundef %15) #14
  %.not18.i.us = icmp eq ptr %25, null
  br i1 %.not18.i.us, label %.thread.i.us, label %26

26:                                               ; preds = %21
  %27 = tail call i32 @ecpg_hex_encode(ptr noundef nonnull %11, i32 noundef %14, ptr noundef nonnull %25) #14
  %28 = tail call i32 @ecpg_hex_enc_len(i32 noundef %14) #14
  %29 = zext i32 %28 to i64
  %30 = getelementptr inbounds nuw i8, ptr %25, i64 %29
  store i8 0, ptr %30, align 1
  %31 = trunc nuw nsw i64 %indvars.iv.next24 to i32
  tail call void (ptr, ...) @ecpg_log(ptr noundef nonnull @.str.69, i32 noundef %15, i32 noundef %31, ptr noundef nonnull %25) #14
  tail call void @ecpg_free(ptr noundef nonnull %25) #14
  br label %print_param_value.exit.us

.thread.i.us:                                     ; preds = %21, %17, %.lr.ph.split.us
  %.015.ph.i.us = phi ptr [ @.str.68, %21 ], [ %11, %17 ], [ @.str.67, %.lr.ph.split.us ]
  %32 = trunc nuw nsw i64 %indvars.iv.next24 to i32
  tail call void (ptr, ...) @ecpg_log(ptr noundef nonnull @.str.69, i32 noundef %15, i32 noundef %32, ptr noundef nonnull %.015.ph.i.us) #14
  br label %print_param_value.exit.us

print_param_value.exit.us:                        ; preds = %.thread.i.us, %26
  %33 = load ptr, ptr %6, align 8
  %34 = getelementptr inbounds nuw ptr, ptr %33, i64 %indvars.iv23
  %35 = load ptr, ptr %34, align 8
  tail call void @ecpg_free(ptr noundef %35) #14
  %36 = load i32, ptr %3, align 8
  %37 = sext i32 %36 to i64
  %38 = icmp slt i64 %indvars.iv.next24, %37
  br i1 %38, label %.lr.ph.split.us, label %._crit_edge, !llvm.loop !27

print_param_value.exit:                           ; preds = %.lr.ph, %print_param_value.exit
  %indvars.iv = phi i64 [ %indvars.iv.next, %print_param_value.exit ], [ 0, %.lr.ph ]
  %39 = load ptr, ptr %6, align 8
  %40 = getelementptr inbounds nuw ptr, ptr %39, i64 %indvars.iv
  %41 = load ptr, ptr %40, align 8
  tail call void @ecpg_free(ptr noundef %41) #14
  %indvars.iv.next = add nuw nsw i64 %indvars.iv, 1
  %42 = load i32, ptr %3, align 8
  %43 = sext i32 %42 to i64
  %44 = icmp slt i64 %indvars.iv.next, %43
  br i1 %44, label %print_param_value.exit, label %._crit_edge, !llvm.loop !27

._crit_edge:                                      ; preds = %print_param_value.exit, %print_param_value.exit.us, %2
  %45 = getelementptr inbounds nuw i8, ptr %0, i64 80
  %46 = load ptr, ptr %45, align 8
  tail call void @ecpg_free(ptr noundef %46) #14
  %47 = getelementptr inbounds nuw i8, ptr %0, i64 88
  %48 = load ptr, ptr %47, align 8
  tail call void @ecpg_free(ptr noundef %48) #14
  %49 = getelementptr inbounds nuw i8, ptr %0, i64 96
  %50 = load ptr, ptr %49, align 8
  tail call void @ecpg_free(ptr noundef %50) #14
  store i32 0, ptr %3, align 8
  tail call void @llvm.memset.p0.i64(ptr noundef nonnull align 8 dereferenceable(24) %45, i8 0, i64 24, i1 false)
  ret void
}